target datalayout = "e-m:e-p270:32:32-p271:32:32-p272:64:64-i64:64-i128:128-f80:128-n8:16:32:64-S128"
target triple = "x86_64-pc-linux-gnu"

%struct.pg_conn = type { ptr, ptr, ptr, ptr, ptr, ptr, ptr, ptr, ptr, ptr, ptr, ptr, ptr, ptr, ptr, ptr, ptr, ptr, ptr, ptr, ptr, ptr, ptr, ptr, ptr, ptr, ptr, ptr, ptr, ptr, ptr, ptr, ptr, ptr, ptr, ptr, ptr, ptr, ptr, ptr, ptr, ptr, ptr, i8, ptr, i32, %struct.PGNoticeHooks, ptr, i32, i32, i32, i32, i32, [6 x i8], i8, i8, i32, i8, i8, i32, i8, i32, ptr, ptr, i32, i32, ptr, ptr, ptr, ptr, ptr, i32, %struct.SockAddr, %struct.SockAddr, i32, i32, i8, i8, i8, i8, i8, i8, ptr, i8, i32, [1 x ptr], i8, i8, ptr, ptr, i32, i32, i32, i8, i8, i32, i32, ptr, i8, i64, ptr, i64, ptr, i32, i32, ptr, i32, i8, i32, i32, i32, i32, ptr, %struct.pg_prng_state, ptr, i32, i32, i32, i32, ptr, i32, i32, i32, i32, ptr, i32, ptr, i8, ptr, ptr, ptr, i32, i8, i8, i8, i8, i8, i8, i8, i8, %struct.PQExpBufferData, i32, %struct.PQExpBufferData }
%struct.PGNoticeHooks = type { ptr, ptr, ptr, ptr }
%struct.SockAddr = type { %struct.sockaddr_storage, i32 }
%struct.sockaddr_storage = type { i16, [118 x i8], i64 }
%struct.pg_prng_state = type { i64, i64 }
%struct.PQExpBufferData = type { ptr, i64, i64 }
%struct.pgNotify = type { ptr, i32, ptr, ptr }
%struct.pgParameterStatus = type { ptr, ptr, ptr }

; Function Attrs: nounwind uwtable
define internal void @pqDropServerData(ptr noundef %0) #0 {
  %2 = alloca ptr, align 8
  %3 = alloca ptr, align 8
  %4 = alloca ptr, align 8
  %5 = alloca ptr, align 8
  %6 = alloca ptr, align 8
  store ptr %0, ptr %2, align 8
  call void @llvm.lifetime.start.p0(i64 8, ptr %3) #12
  call void @llvm.lifetime.start.p0(i64 8, ptr %4) #12
  %7 = load ptr, ptr %2, align 8
  %8 = getelementptr inbounds nuw %struct.pg_conn, ptr %7, i32 0, i32 62
  %9 = load ptr, ptr %8, align 8
  store ptr %9, ptr %3, align 8
  br label %10

10:                                               ; preds = %13, %1
  %11 = load ptr, ptr %3, align 8
  %12 = icmp ne ptr %11, null
  br i1 %12, label %13, label %19

13:                                               ; preds = %10
  call void @llvm.lifetime.start.p0(i64 8, ptr %5) #12
  %14 = load ptr, ptr %3, align 8
  store ptr %14, ptr %5, align 8
  %15 = load ptr, ptr %3, align 8
  %16 = getelementptr inbounds nuw %struct.pgNotify, ptr %15, i32 0, i32 3
  %17 = load ptr, ptr %16, align 8
  store ptr %17, ptr %3, align 8
  %18 = load ptr, ptr %5, align 8
  call void @free(ptr noundef %18) #12
  call void @llvm.lifetime.end.p0(i64 8, ptr %5) #12
  br label %10, !llvm.loop !40

19:                                               ; preds = %10
  %20 = load ptr, ptr %2, align 8
  %21 = getelementptr inbounds nuw %struct.pg_conn, ptr %20, i32 0, i32 63
  store ptr null, ptr %21, align 8
  %22 = load ptr, ptr %2, align 8
  %23 = getelementptr inbounds nuw %struct.pg_conn, ptr %22, i32 0, i32 62
  store ptr null, ptr %23, align 8
  %24 = load ptr, ptr %2, align 8
  %25 = getelementptr inbounds nuw %struct.pg_conn, ptr %24, i32 0, i32 105
  %26 = load ptr, ptr %25, align 8
  store ptr %26, ptr %4, align 8
  br label %27

27:                                               ; preds = %30, %19
  %28 = load ptr, ptr %4, align 8
  %29 = icmp ne ptr %28, null
  br i1 %29, label %30, label %36

30:                                               ; preds = %27
  call void @llvm.lifetime.start.p0(i64 8, ptr %6) #12
  %31 = load ptr, ptr %4, align 8
  store ptr %31, ptr %6, align 8
  %32 = load ptr, ptr %4, align 8
  %33 = getelementptr inbounds nuw %struct.pgParameterStatus, ptr %32, i32 0, i32 0
  %34 = load ptr, ptr %33, align 8
  store ptr %34, ptr %4, align 8
  %35 = load ptr, ptr %6, align 8
  call void @free(ptr noundef %35) #12
  call void @llvm.lifetime.end.p0(i64 8, ptr %6) #12
  br label %27, !llvm.loop !41

36:                                               ; preds = %27
  %37 = load ptr, ptr %2, align 8
  %38 = getelementptr inbounds nuw %struct.pg_conn, ptr %37, i32 0, i32 105
  store ptr null, ptr %38, align 8
  %39 = load ptr, ptr %2, align 8
  %40 = getelementptr inbounds nuw %struct.pg_conn, ptr %39, i32 0, i32 106
  store i32 0, ptr %40, align 8
  %41 = load ptr, ptr %2, align 8
  %42 = getelementptr inbounds nuw %struct.pg_conn, ptr %41, i32 0, i32 107
  store i8 0, ptr %42, align 4
  %43 = load ptr, ptr %2, align 8
  %44 = getelementptr inbounds nuw %struct.pg_conn, ptr %43, i32 0, i32 108
  store i32 0, ptr %44, align 8
  %45 = load ptr, ptr %2, align 8
  %46 = getelementptr inbounds nuw %struct.pg_conn, ptr %45, i32 0, i32 109
  store i32 0, ptr %46, align 4
  %47 = load ptr, ptr %2, align 8
  %48 = getelementptr inbounds nuw %struct.pg_conn, ptr %47, i32 0, i32 131
  store i32 4096, ptr %48, align 8
  %49 = load ptr, ptr %2, align 8
  %50 = getelementptr inbounds nuw %struct.pg_conn, ptr %49, i32 0, i32 75
  store i32 0, ptr %50, align 4
  %51 = load ptr, ptr %2, align 8
  %52 = getelementptr inbounds nuw %struct.pg_conn, ptr %51, i32 0, i32 112
  %53 = load ptr, ptr %52, align 8
  call void @free(ptr noundef %53) #12
  %54 = load ptr, ptr %2, align 8
  %55 = getelementptr inbounds nuw %struct.pg_conn, ptr %54, i32 0, i32 112
  store ptr null, ptr %55, align 8
  %56 = load ptr, ptr %2, align 8
  %57 = getelementptr inbounds nuw %struct.pg_conn, ptr %56, i32 0, i32 53
  %58 = getelementptr inbounds [6 x i8], ptr %57, i64 0, i64 0
  store i8 0, ptr %58, align 4
  %59 = load ptr, ptr %2, align 8
  %60 = getelementptr inbounds nuw %struct.pg_conn, ptr %59, i32 0, i32 76
  store i8 0, ptr %60, align 8
  %61 = load ptr, ptr %2, align 8
  %62 = getelementptr inbounds nuw %struct.pg_conn, ptr %61, i32 0, i32 86
  store i8 0, ptr %62, align 8
  %63 = load ptr, ptr %2, align 8
  %64 = getelementptr inbounds nuw %struct.pg_conn, ptr %63, i32 0, i32 77
  store i8 0, ptr %64, align 1
  %65 = load ptr, ptr %2, align 8
  %66 = getelementptr inbounds nuw %struct.pg_conn, ptr %65, i32 0, i32 78
  store i8 0, ptr %66, align 2
  %67 = load ptr, ptr %2, align 8
  %68 = getelementptr inbounds nuw %struct.pg_conn, ptr %67, i32 0, i32 81
  store i8 0, ptr %68, align 1
  %69 = load ptr, ptr %2, align 8
  %70 = getelementptr inbounds nuw %struct.pg_conn, ptr %69, i32 0, i32 82
  %71 = load ptr, ptr %70, align 8
  call void @free(ptr noundef %71) #12
  %72 = load ptr, ptr %2, align 8
  %73 = getelementptr inbounds nuw %struct.pg_conn, ptr %72, i32 0, i32 82
  store ptr null, ptr %73, align 8
  %74 = load ptr, ptr %2, align 8
  %75 = getelementptr inbounds nuw %struct.pg_conn, ptr %74, i32 0, i32 43
  %76 = load i8, ptr %75, align 8, !range !3, !noundef !4
  %77 = trunc i8 %76 to i1
  br i1 %77, label %83, label %78

78:                                               ; preds = %36
  %79 = load ptr, ptr %2, align 8
  %80 = getelementptr inbounds nuw %struct.pg_conn, ptr %79, i32 0, i32 103
  store i32 0, ptr %80, align 8
  %81 = load ptr, ptr %2, align 8
  %82 = getelementptr inbounds nuw %struct.pg_conn, ptr %81, i32 0, i32 104
  store i32 0, ptr %82, align 4
  br label %83

83:                                               ; preds = %78, %36
  call void @llvm.lifetime.end.p0(i64 8, ptr %4) #12
  call void @llvm.lifetime.end.p0(i64 8, ptr %3) #12
  ret void
}