; Function Attrs: nounwind uwtable
define internal fastcc void @pqDropServerData(ptr noundef captures(none) %0) unnamed_addr #0 {
  %2 = getelementptr inbounds nuw i8, ptr %0, i64 456
  %3 = load ptr, ptr %2, align 8
  %.not34 = icmp eq ptr %3, null
  br i1 %.not34, label %._crit_edge, label %.lr.ph

.lr.ph:                                           ; preds = %1, %.lr.ph
  %.035 = phi ptr [ %5, %.lr.ph ], [ %3, %1 ]
  %4 = getelementptr inbounds nuw i8, ptr %.035, i64 24
  %5 = load ptr, ptr %4, align 8
  tail call void @free(ptr noundef nonnull %.035) #25
  %.not = icmp eq ptr %5, null
  br i1 %.not, label %._crit_edge, label %.lr.ph, !llvm.loop !34

._crit_edge:                                      ; preds = %.lr.ph, %1
  %6 = getelementptr inbounds nuw i8, ptr %0, i64 944
  tail call void @llvm.memset.p0.i64(ptr noundef nonnull align 8 dereferenceable(16) %2, i8 0, i64 16, i1 false)
  %7 = load ptr, ptr %6, align 8
  %.not3336 = icmp eq ptr %7, null
  br i1 %.not3336, label %._crit_edge40, label %.lr.ph39

.lr.ph39:                                         ; preds = %._crit_edge, %.lr.ph39
  %.03237 = phi ptr [ %8, %.lr.ph39 ], [ %7, %._crit_edge ]
  %8 = load ptr, ptr %.03237, align 8
  tail call void @free(ptr noundef nonnull %.03237) #25
  %.not33 = icmp eq ptr %8, null
  br i1 %.not33, label %._crit_edge40, label %.lr.ph39, !llvm.loop !35

._crit_edge40:                                    ; preds = %.lr.ph39, %._crit_edge
  store ptr null, ptr %6, align 8
  %9 = getelementptr inbounds nuw i8, ptr %0, i64 952
  store i32 0, ptr %9, align 8
  %10 = getelementptr inbounds nuw i8, ptr %0, i64 956
  store i8 0, ptr %10, align 4
  %11 = getelementptr inbounds nuw i8, ptr %0, i64 960
  store i32 0, ptr %11, align 8
  %12 = getelementptr inbounds nuw i8, ptr %0, i64 964
  store i32 0, ptr %12, align 4
  %13 = getelementptr inbounds nuw i8, ptr %0, i64 1104
  store i32 4096, ptr %13, align 8
  %14 = getelementptr inbounds nuw i8, ptr %0, i64 804
  store i32 0, ptr %14, align 4
  %15 = getelementptr inbounds nuw i8, ptr %0, i64 976
  %16 = load ptr, ptr %15, align 8
  tail call void @free(ptr noundef %16) #25
  store ptr null, ptr %15, align 8
  %17 = getelementptr inbounds nuw i8, ptr %0, i64 428
  store i8 0, ptr %17, align 4
  %18 = getelementptr inbounds nuw i8, ptr %0, i64 808
  store i8 0, ptr %18, align 8
  %19 = getelementptr inbounds nuw i8, ptr %0, i64 840
  store i8 0, ptr %19, align 8
  %20 = getelementptr inbounds nuw i8, ptr %0, i64 809
  store i8 0, ptr %20, align 1
  %21 = getelementptr inbounds nuw i8, ptr %0, i64 810
  store i8 0, ptr %21, align 2
  %22 = getelementptr inbounds nuw i8, ptr %0, i64 813
  store i8 0, ptr %22, align 1
  %23 = getelementptr inbounds nuw i8, ptr %0, i64 816
  %24 = load ptr, ptr %23, align 8
  tail call void @free(ptr noundef %24) #25
  store ptr null, ptr %23, align 8
  %25 = getelementptr inbounds nuw i8, ptr %0, i64 344
  %26 = load i8, ptr %25, align 8, !range !13, !noundef !14
  %27 = trunc nuw i8 %26 to i1
  br i1 %27, label %31, label %28

28:                                               ; preds = %._crit_edge40
  %29 = getelementptr inbounds nuw i8, ptr %0, i64 936
  store i32 0, ptr %29, align 8
  %30 = getelementptr inbounds nuw i8, ptr %0, i64 940
  store i32 0, ptr %30, align 4
  br label %31

31:                                               ; preds = %28, %._crit_edge40
  ret void
}